target datalayout = "e-m:e-p270:32:32-p271:32:32-p272:64:64-i64:64-i128:128-f80:128-n8:16:32:64-S128"
target triple = "x86_64-pc-linux-gnu"

%struct.Fraig_ManStruct_t_ = type { ptr, ptr, ptr, ptr, ptr, ptr, ptr, ptr, ptr, i32, i32, i32, i32, i32, i32, i32, i32, i32, i32, i32, i32, i64, i32, i32, i32, i32, i32, ptr, ptr, ptr, ptr, ptr, i32, ptr, ptr, ptr, ptr, ptr, ptr, i32, ptr, ptr, ptr, ptr, i32, i32, i32, i32, i32, i32, i32, i32, i32, i32, i32, i32, i32, i32, i32, i32, i32, i32, i32, i64, i64, i64, i64, i64, i64, i64, i64, i64, i64, i64, i64 }
%struct.Fraig_NodeVecStruct_t_ = type { i32, i32, ptr }
%struct.Fraig_NodeStruct_t_ = type { i32, i32, i32, i32, i32, i32, i32, ptr, ptr, ptr, ptr, ptr, ptr, ptr, ptr, i32, i32, ptr, ptr, ptr, ptr, ptr, ptr, ptr }
%struct.timespec = type { i64, i64 }

; Function Attrs: inlinehint nounwind uwtable
define internal i64 @Abc_Clock() #4 {
  %1 = alloca i64, align 8
  %2 = alloca %struct.timespec, align 8
  %3 = alloca i32, align 4
  %4 = alloca i64, align 8
  call void @llvm.lifetime.start.p0(i64 16, ptr %2) #6
  %5 = call i32 @clock_gettime(i32 noundef 1, ptr noundef %2) #6
  %6 = icmp slt i32 %5, 0
  br i1 %6, label %7, label %8

7:                                                ; preds = %0
  store i64 -1, ptr %1, align 8
  store i32 1, ptr %3, align 4
  br label %19

8:                                                ; preds = %0
  call void @llvm.lifetime.start.p0(i64 8, ptr %4) #6
  %9 = getelementptr inbounds nuw %struct.timespec, ptr %2, i32 0, i32 0
  %10 = load i64, ptr %9, align 8, !tbaa !58
  %11 = mul nsw i64 %10, 1000000
  store i64 %11, ptr %4, align 8, !tbaa !38
  %12 = getelementptr inbounds nuw %struct.timespec, ptr %2, i32 0, i32 1
  %13 = load i64, ptr %12, align 8, !tbaa !60
  %14 = mul nsw i64 %13, 1000000
  %15 = sdiv i64 %14, 1000000000
  %16 = load i64, ptr %4, align 8, !tbaa !38
  %17 = add nsw i64 %16, %15
  store i64 %17, ptr %4, align 8, !tbaa !38
  %18 = load i64, ptr %4, align 8, !tbaa !38
  store i64 %18, ptr %1, align 8
  store i32 1, ptr %3, align 4
  call void @llvm.lifetime.end.p0(i64 8, ptr %4) #6
  br label %19

19:                                               ; preds = %8, %7
  call void @llvm.lifetime.end.p0(i64 16, ptr %2) #6
  %20 = load i64, ptr %1, align 8
  ret i64 %20
}

; Function Attrs: inlinehint nounwind uwtable
define internal i32 @Abc_MaxInt(i32 noundef %0, i32 noundef %1) #4 {
  %3 = alloca i32, align 4
  %4 = alloca i32, align 4
  store i32 %0, ptr %3, align 4, !tbaa !40
  store i32 %1, ptr %4, align 4, !tbaa !40
  %5 = load i32, ptr %3, align 4, !tbaa !40
  %6 = load i32, ptr %4, align 4, !tbaa !40
  %7 = icmp sgt i32 %5, %6
  br i1 %7, label %8, label %10

8:                                                ; preds = %2
  %9 = load i32, ptr %3, align 4, !tbaa !40
  br label %12

10:                                               ; preds = %2
  %11 = load i32, ptr %4, align 4, !tbaa !40
  br label %12

12:                                               ; preds = %10, %8
  %13 = phi i32 [ %9, %8 ], [ %11, %10 ]
  ret i32 %13
}

; Function Attrs: nounwind uwtable
define ptr @Fraig_NodeCreate(ptr noundef %0, ptr noundef %1, ptr noundef %2) #0 {
  %4 = alloca ptr, align 8
  %5 = alloca ptr, align 8
  %6 = alloca ptr, align 8
  %7 = alloca ptr, align 8
  %8 = alloca i64, align 8
  store ptr %0, ptr %4, align 8, !tbaa !3
  store ptr %1, ptr %5, align 8, !tbaa !22
  store ptr %2, ptr %6, align 8, !tbaa !22
  call void @llvm.lifetime.start.p0(i64 8, ptr %7) #6
  call void @llvm.lifetime.start.p0(i64 8, ptr %8) #6
  %9 = load ptr, ptr %4, align 8, !tbaa !3
  %10 = getelementptr inbounds nuw %struct.Fraig_ManStruct_t_, ptr %9, i32 0, i32 35
  %11 = load ptr, ptr %10, align 8, !tbaa !8
  %12 = call ptr @Fraig_MemFixedEntryFetch(ptr noundef %11)
  store ptr %12, ptr %7, align 8, !tbaa !22
  %13 = load ptr, ptr %7, align 8, !tbaa !22
  call void @llvm.memset.p0.i64(ptr align 8 %13, i8 0, i64 160, i1 false)
  %14 = load ptr, ptr %5, align 8, !tbaa !22
  %15 = load ptr, ptr %7, align 8, !tbaa !22
  %16 = getelementptr inbounds nuw %struct.Fraig_NodeStruct_t_, ptr %15, i32 0, i32 7
  store ptr %14, ptr %16, align 8, !tbaa !47
  %17 = load ptr, ptr %5, align 8, !tbaa !22
  %18 = ptrtoint ptr %17 to i64
  %19 = and i64 %18, -2
  %20 = inttoptr i64 %19 to ptr
  %21 = getelementptr inbounds nuw %struct.Fraig_NodeStruct_t_, ptr %20, i32 0, i32 3
  %22 = load i32, ptr %21, align 4, !tbaa !31
  %23 = add nsw i32 %22, 1
  store i32 %23, ptr %21, align 4, !tbaa !31
  %24 = load ptr, ptr %6, align 8, !tbaa !22
  %25 = load ptr, ptr %7, align 8, !tbaa !22
  %26 = getelementptr inbounds nuw %struct.Fraig_NodeStruct_t_, ptr %25, i32 0, i32 8
  store ptr %24, ptr %26, align 8, !tbaa !48
  %27 = load ptr, ptr %6, align 8, !tbaa !22
  %28 = ptrtoint ptr %27 to i64
  %29 = and i64 %28, -2
  %30 = inttoptr i64 %29 to ptr
  %31 = getelementptr inbounds nuw %struct.Fraig_NodeStruct_t_, ptr %30, i32 0, i32 3
  %32 = load i32, ptr %31, align 4, !tbaa !31
  %33 = add nsw i32 %32, 1
  store i32 %33, ptr %31, align 4, !tbaa !31
  %34 = load ptr, ptr %4, align 8, !tbaa !3
  %35 = getelementptr inbounds nuw %struct.Fraig_ManStruct_t_, ptr %34, i32 0, i32 1
  %36 = load ptr, ptr %35, align 8, !tbaa !23
  %37 = getelementptr inbounds nuw %struct.Fraig_NodeVecStruct_t_, ptr %36, i32 0, i32 1
  %38 = load i32, ptr %37, align 4, !tbaa !24
  %39 = load ptr, ptr %7, align 8, !tbaa !22
  %40 = getelementptr inbounds nuw %struct.Fraig_NodeStruct_t_, ptr %39, i32 0, i32 0
  store i32 %38, ptr %40, align 8, !tbaa !27
  %41 = load ptr, ptr %4, align 8, !tbaa !3
  %42 = getelementptr inbounds nuw %struct.Fraig_ManStruct_t_, ptr %41, i32 0, i32 1
  %43 = load ptr, ptr %42, align 8, !tbaa !23
  %44 = load ptr, ptr %7, align 8, !tbaa !22
  call void @Fraig_NodeVecPush(ptr noundef %43, ptr noundef %44)
  %45 = load ptr, ptr %7, align 8, !tbaa !22
  %46 = getelementptr inbounds nuw %struct.Fraig_NodeStruct_t_, ptr %45, i32 0, i32 1
  store i32 -1, ptr %46, align 4, !tbaa !29
  %47 = load ptr, ptr %5, align 8, !tbaa !22
  %48 = ptrtoint ptr %47 to i64
  %49 = and i64 %48, -2
  %50 = inttoptr i64 %49 to ptr
  %51 = getelementptr inbounds nuw %struct.Fraig_NodeStruct_t_, ptr %50, i32 0, i32 2
  %52 = load i32, ptr %51, align 8, !tbaa !30
  %53 = load ptr, ptr %6, align 8, !tbaa !22
  %54 = ptrtoint ptr %53 to i64
  %55 = and i64 %54, -2
  %56 = inttoptr i64 %55 to ptr
  %57 = getelementptr inbounds nuw %struct.Fraig_NodeStruct_t_, ptr %56, i32 0, i32 2
  %58 = load i32, ptr %57, align 8, !tbaa !30
  %59 = call i32 @Abc_MaxInt(i32 noundef %52, i32 noundef %58)
  %60 = add nsw i32 1, %59
  %61 = load ptr, ptr %7, align 8, !tbaa !22
  %62 = getelementptr inbounds nuw %struct.Fraig_NodeStruct_t_, ptr %61, i32 0, i32 2
  store i32 %60, ptr %62, align 8, !tbaa !30
  %63 = load ptr, ptr %5, align 8, !tbaa !22
  %64 = ptrtoint ptr %63 to i64
  %65 = and i64 %64, 1
  %66 = trunc i64 %65 to i32
  %67 = icmp ne i32 %66, 0
  br i1 %67, label %68, label %79

68:                                               ; preds = %3
  %69 = load ptr, ptr %5, align 8, !tbaa !22
  %70 = ptrtoint ptr %69 to i64
  %71 = and i64 %70, -2
  %72 = inttoptr i64 %71 to ptr
  %73 = getelementptr inbounds nuw %struct.Fraig_NodeStruct_t_, ptr %72, i32 0, i32 6
  %74 = load i32, ptr %73, align 8
  %75 = and i32 %74, 1
  %76 = icmp ne i32 %75, 0
  %77 = xor i1 %76, true
  %78 = zext i1 %77 to i32
  br label %84

79:                                               ; preds = %3
  %80 = load ptr, ptr %5, align 8, !tbaa !22
  %81 = getelementptr inbounds nuw %struct.Fraig_NodeStruct_t_, ptr %80, i32 0, i32 6
  %82 = load i32, ptr %81, align 8
  %83 = and i32 %82, 1
  br label %84

84:                                               ; preds = %79, %68
  %85 = phi i32 [ %78, %68 ], [ %83, %79 ]
  %86 = load ptr, ptr %6, align 8, !tbaa !22
  %87 = ptrtoint ptr %86 to i64
  %88 = and i64 %87, 1
  %89 = trunc i64 %88 to i32
  %90 = icmp ne i32 %89, 0
  br i1 %90, label %91, label %102

91:                                               ; preds = %84
  %92 = load ptr, ptr %6, align 8, !tbaa !22
  %93 = ptrtoint ptr %92 to i64
  %94 = and i64 %93, -2
  %95 = inttoptr i64 %94 to ptr
  %96 = getelementptr inbounds nuw %struct.Fraig_NodeStruct_t_, ptr %95, i32 0, i32 6
  %97 = load i32, ptr %96, align 8
  %98 = and i32 %97, 1
  %99 = icmp ne i32 %98, 0
  %100 = xor i1 %99, true
  %101 = zext i1 %100 to i32
  br label %107

102:                                              ; preds = %84
  %103 = load ptr, ptr %6, align 8, !tbaa !22
  %104 = getelementptr inbounds nuw %struct.Fraig_NodeStruct_t_, ptr %103, i32 0, i32 6
  %105 = load i32, ptr %104, align 8
  %106 = and i32 %105, 1
  br label %107

107:                                              ; preds = %102, %91
  %108 = phi i32 [ %101, %91 ], [ %106, %102 ]
  %109 = and i32 %85, %108
  %110 = load ptr, ptr %7, align 8, !tbaa !22
  %111 = getelementptr inbounds nuw %struct.Fraig_NodeStruct_t_, ptr %110, i32 0, i32 6
  %112 = load i32, ptr %111, align 8
  %113 = and i32 %109, 1
  %114 = and i32 %112, -2
  %115 = or i32 %114, %113
  store i32 %115, ptr %111, align 8
  %116 = load ptr, ptr %5, align 8, !tbaa !22
  %117 = ptrtoint ptr %116 to i64
  %118 = and i64 %117, -2
  %119 = inttoptr i64 %118 to ptr
  %120 = getelementptr inbounds nuw %struct.Fraig_NodeStruct_t_, ptr %119, i32 0, i32 6
  %121 = load i32, ptr %120, align 8
  %122 = lshr i32 %121, 9
  %123 = and i32 %122, 1
  %124 = load ptr, ptr %6, align 8, !tbaa !22
  %125 = ptrtoint ptr %124 to i64
  %126 = and i64 %125, -2
  %127 = inttoptr i64 %126 to ptr
  %128 = getelementptr inbounds nuw %struct.Fraig_NodeStruct_t_, ptr %127, i32 0, i32 6
  %129 = load i32, ptr %128, align 8
  %130 = lshr i32 %129, 9
  %131 = and i32 %130, 1
  %132 = or i32 %123, %131
  %133 = load ptr, ptr %7, align 8, !tbaa !22
  %134 = getelementptr inbounds nuw %struct.Fraig_NodeStruct_t_, ptr %133, i32 0, i32 6
  %135 = load i32, ptr %134, align 8
  %136 = and i32 %132, 1
  %137 = shl i32 %136, 9
  %138 = and i32 %135, -513
  %139 = or i32 %138, %137
  store i32 %139, ptr %134, align 8
  %140 = call i64 @Abc_Clock()
  store i64 %140, ptr %8, align 8, !tbaa !38
  %141 = load ptr, ptr %4, align 8, !tbaa !3
  %142 = getelementptr inbounds nuw %struct.Fraig_ManStruct_t_, ptr %141, i32 0, i32 36
  %143 = load ptr, ptr %142, align 8, !tbaa !32
  %144 = call ptr @Fraig_MemFixedEntryFetch(ptr noundef %143)
  %145 = load ptr, ptr %7, align 8, !tbaa !22
  %146 = getelementptr inbounds nuw %struct.Fraig_NodeStruct_t_, ptr %145, i32 0, i32 17
  store ptr %144, ptr %146, align 8, !tbaa !33
  %147 = load ptr, ptr %7, align 8, !tbaa !22
  %148 = getelementptr inbounds nuw %struct.Fraig_NodeStruct_t_, ptr %147, i32 0, i32 17
  %149 = load ptr, ptr %148, align 8, !tbaa !33
  %150 = load ptr, ptr %4, align 8, !tbaa !3
  %151 = getelementptr inbounds nuw %struct.Fraig_ManStruct_t_, ptr %150, i32 0, i32 9
  %152 = load i32, ptr %151, align 8, !tbaa !34
  %153 = sext i32 %152 to i64
  %154 = getelementptr inbounds i32, ptr %149, i64 %153
  %155 = load ptr, ptr %7, align 8, !tbaa !22
  %156 = getelementptr inbounds nuw %struct.Fraig_NodeStruct_t_, ptr %155, i32 0, i32 18
  store ptr %154, ptr %156, align 8, !tbaa !35
  %157 = load ptr, ptr %7, align 8, !tbaa !22
  %158 = getelementptr inbounds nuw %struct.Fraig_NodeStruct_t_, ptr %157, i32 0, i32 15
  store i32 0, ptr %158, align 8, !tbaa !39
  %159 = load ptr, ptr %7, align 8, !tbaa !22
  %160 = load ptr, ptr %4, align 8, !tbaa !3
  %161 = getelementptr inbounds nuw %struct.Fraig_ManStruct_t_, ptr %160, i32 0, i32 9
  %162 = load i32, ptr %161, align 8, !tbaa !34
  call void @Fraig_NodeSimulate(ptr noundef %159, i32 noundef 0, i32 noundef %162, i32 noundef 1)
  %163 = load ptr, ptr %7, align 8, !tbaa !22
  %164 = getelementptr inbounds nuw %struct.Fraig_NodeStruct_t_, ptr %163, i32 0, i32 16
  store i32 0, ptr %164, align 4, !tbaa !43
  %165 = load ptr, ptr %7, align 8, !tbaa !22
  %166 = load ptr, ptr %4, align 8, !tbaa !3
  %167 = getelementptr inbounds nuw %struct.Fraig_ManStruct_t_, ptr %166, i32 0, i32 24
  %168 = load i32, ptr %167, align 8, !tbaa !44
  call void @Fraig_NodeSimulate(ptr noundef %165, i32 noundef 0, i32 noundef %168, i32 noundef 0)
  %169 = load ptr, ptr %7, align 8, !tbaa !22
  %170 = getelementptr inbounds nuw %struct.Fraig_NodeStruct_t_, ptr %169, i32 0, i32 17
  %171 = load ptr, ptr %170, align 8, !tbaa !33
  %172 = load ptr, ptr %4, align 8, !tbaa !3
  %173 = getelementptr inbounds nuw %struct.Fraig_ManStruct_t_, ptr %172, i32 0, i32 9
  %174 = load i32, ptr %173, align 8, !tbaa !34
  %175 = call i32 @Fraig_BitStringCountOnes(ptr noundef %171, i32 noundef %174)
  %176 = load ptr, ptr %7, align 8, !tbaa !22
  %177 = getelementptr inbounds nuw %struct.Fraig_NodeStruct_t_, ptr %176, i32 0, i32 6
  %178 = load i32, ptr %177, align 8
  %179 = and i32 %175, 1048575
  %180 = shl i32 %179, 12
  %181 = and i32 %178, 4095
  %182 = or i32 %181, %180
  store i32 %182, ptr %177, align 8
  %183 = load ptr, ptr %7, align 8, !tbaa !22
  %184 = getelementptr inbounds nuw %struct.Fraig_NodeStruct_t_, ptr %183, i32 0, i32 6
  %185 = load i32, ptr %184, align 8
  %186 = and i32 %185, 1
  %187 = icmp ne i32 %186, 0
  br i1 %187, label %188, label %205

188:                                              ; preds = %107
  %189 = load ptr, ptr %4, align 8, !tbaa !3
  %190 = getelementptr inbounds nuw %struct.Fraig_ManStruct_t_, ptr %189, i32 0, i32 9
  %191 = load i32, ptr %190, align 8, !tbaa !34
  %192 = mul nsw i32 %191, 32
  %193 = load ptr, ptr %7, align 8, !tbaa !22
  %194 = getelementptr inbounds nuw %struct.Fraig_NodeStruct_t_, ptr %193, i32 0, i32 6
  %195 = load i32, ptr %194, align 8
  %196 = lshr i32 %195, 12
  %197 = sub nsw i32 %192, %196
  %198 = load ptr, ptr %7, align 8, !tbaa !22
  %199 = getelementptr inbounds nuw %struct.Fraig_NodeStruct_t_, ptr %198, i32 0, i32 6
  %200 = load i32, ptr %199, align 8
  %201 = and i32 %197, 1048575
  %202 = shl i32 %201, 12
  %203 = and i32 %200, 4095
  %204 = or i32 %203, %202
  store i32 %204, ptr %199, align 8
  br label %205

205:                                              ; preds = %188, %107
  %206 = call i64 @Abc_Clock()
  %207 = load i64, ptr %8, align 8, !tbaa !38
  %208 = sub nsw i64 %206, %207
  %209 = load ptr, ptr %4, align 8, !tbaa !3
  %210 = getelementptr inbounds nuw %struct.Fraig_ManStruct_t_, ptr %209, i32 0, i32 64
  %211 = load i64, ptr %210, align 8, !tbaa !46
  %212 = add nsw i64 %211, %208
  store i64 %212, ptr %210, align 8, !tbaa !46
  %213 = load ptr, ptr %5, align 8, !tbaa !22
  %214 = ptrtoint ptr %213 to i64
  %215 = and i64 %214, -2
  %216 = inttoptr i64 %215 to ptr
  %217 = load ptr, ptr %7, align 8, !tbaa !22
  call void @Fraig_NodeAddFaninFanout(ptr noundef %216, ptr noundef %217)
  %218 = load ptr, ptr %6, align 8, !tbaa !22
  %219 = ptrtoint ptr %218 to i64
  %220 = and i64 %219, -2
  %221 = inttoptr i64 %220 to ptr
  %222 = load ptr, ptr %7, align 8, !tbaa !22
  call void @Fraig_NodeAddFaninFanout(ptr noundef %221, ptr noundef %222)
  %223 = load ptr, ptr %7, align 8, !tbaa !22
  call void @llvm.lifetime.end.p0(i64 8, ptr %8) #6
  call void @llvm.lifetime.end.p0(i64 8, ptr %7) #6
  ret ptr %223
}