; Function Attrs: nounwind uwtable
define noundef ptr @Fraig_NodeCreate(ptr noundef captures(none) %0, ptr noundef %1, ptr noundef %2) local_unnamed_addr #0 {
  %4 = alloca %struct.timespec, align 8
  %5 = alloca %struct.timespec, align 8
  %6 = getelementptr inbounds nuw i8, ptr %0, i64 216
  %7 = load ptr, ptr %6, align 8, !tbaa !3
  %8 = tail call ptr @Fraig_MemFixedEntryFetch(ptr noundef %7) #7
  tail call void @llvm.memset.p0.i64(ptr noundef nonnull align 8 dereferenceable(160) %8, i8 0, i64 160, i1 false)
  %9 = getelementptr inbounds nuw i8, ptr %8, i64 32
  store ptr %1, ptr %9, align 8, !tbaa !46
  %10 = ptrtoint ptr %1 to i64
  %11 = and i64 %10, -2
  %12 = inttoptr i64 %11 to ptr
  %13 = getelementptr inbounds nuw i8, ptr %12, i64 12
  %14 = load i32, ptr %13, align 4, !tbaa !28
  %15 = add nsw i32 %14, 1
  store i32 %15, ptr %13, align 4, !tbaa !28
  %16 = getelementptr inbounds nuw i8, ptr %8, i64 40
  store ptr %2, ptr %16, align 8, !tbaa !47
  %17 = ptrtoint ptr %2 to i64
  %18 = and i64 %17, -2
  %19 = inttoptr i64 %18 to ptr
  %20 = getelementptr inbounds nuw i8, ptr %19, i64 12
  %21 = load i32, ptr %20, align 4, !tbaa !28
  %22 = add nsw i32 %21, 1
  store i32 %22, ptr %20, align 4, !tbaa !28
  %23 = getelementptr inbounds nuw i8, ptr %0, i64 8
  %24 = load ptr, ptr %23, align 8, !tbaa !20
  %25 = getelementptr inbounds nuw i8, ptr %24, i64 4
  %26 = load i32, ptr %25, align 4, !tbaa !21
  store i32 %26, ptr %8, align 8, !tbaa !24
  tail call void @Fraig_NodeVecPush(ptr noundef %24, ptr noundef nonnull %8) #7
  %27 = getelementptr inbounds nuw i8, ptr %8, i64 4
  store i32 -1, ptr %27, align 4, !tbaa !26
  %28 = getelementptr inbounds nuw i8, ptr %12, i64 8
  %29 = load i32, ptr %28, align 8, !tbaa !27
  %30 = getelementptr inbounds nuw i8, ptr %19, i64 8
  %31 = load i32, ptr %30, align 8, !tbaa !27
  %32 = tail call noundef i32 @llvm.smax.i32(i32 %29, i32 %31)
  %33 = add nsw i32 %32, 1
  %34 = getelementptr inbounds nuw i8, ptr %8, i64 8
  store i32 %33, ptr %34, align 8, !tbaa !27
  %35 = and i64 %10, 1
  %.not = icmp eq i64 %35, 0
  br i1 %.not, label %41, label %36

36:                                               ; preds = %3
  %37 = getelementptr inbounds nuw i8, ptr %12, i64 24
  %38 = load i32, ptr %37, align 8
  %39 = and i32 %38, 1
  %40 = xor i32 %39, 1
  br label %45

41:                                               ; preds = %3
  %42 = getelementptr inbounds nuw i8, ptr %1, i64 24
  %43 = load i32, ptr %42, align 8
  %44 = and i32 %43, 1
  br label %45

45:                                               ; preds = %41, %36
  %46 = phi i32 [ %40, %36 ], [ %44, %41 ]
  %47 = and i64 %17, 1
  %.not51 = icmp eq i64 %47, 0
  br i1 %.not51, label %53, label %48

48:                                               ; preds = %45
  %49 = getelementptr inbounds nuw i8, ptr %19, i64 24
  %50 = load i32, ptr %49, align 8
  %51 = and i32 %50, 1
  %52 = xor i32 %51, 1
  br label %57

53:                                               ; preds = %45
  %54 = getelementptr inbounds nuw i8, ptr %2, i64 24
  %55 = load i32, ptr %54, align 8
  %56 = and i32 %55, 1
  br label %57

57:                                               ; preds = %53, %48
  %58 = phi i32 [ %52, %48 ], [ %56, %53 ]
  %59 = and i32 %58, %46
  %60 = getelementptr inbounds nuw i8, ptr %8, i64 24
  %61 = load i32, ptr %60, align 8
  %62 = and i32 %61, -2
  %63 = or disjoint i32 %62, %59
  store i32 %63, ptr %60, align 8
  %64 = getelementptr inbounds nuw i8, ptr %12, i64 24
  %65 = load i32, ptr %64, align 8
  %66 = getelementptr inbounds nuw i8, ptr %19, i64 24
  %67 = load i32, ptr %66, align 8
  %68 = or i32 %67, %65
  %69 = and i32 %68, 512
  %70 = and i32 %63, -513
  %71 = or disjoint i32 %69, %70
  store i32 %71, ptr %60, align 8
  call void @llvm.lifetime.start.p0(i64 16, ptr nonnull %5) #7
  %72 = call i32 @clock_gettime(i32 noundef 1, ptr noundef nonnull %5) #7
  %73 = icmp slt i32 %72, 0
  br i1 %73, label %Abc_Clock.exit, label %74

74:                                               ; preds = %57
  %75 = load i64, ptr %5, align 8, !tbaa !35
  %.neg56 = mul i64 %75, -1000000
  %76 = getelementptr inbounds nuw i8, ptr %5, i64 8
  %77 = load i64, ptr %76, align 8, !tbaa !37
  %.neg = sdiv i64 %77, -1000
  %.neg57 = add i64 %.neg, %.neg56
  br label %Abc_Clock.exit

Abc_Clock.exit:                                   ; preds = %57, %74
  %.0.i.neg = phi i64 [ %.neg57, %74 ], [ 1, %57 ]
  call void @llvm.lifetime.end.p0(i64 16, ptr nonnull %5) #7
  %78 = getelementptr inbounds nuw i8, ptr %0, i64 224
  %79 = load ptr, ptr %78, align 8, !tbaa !29
  %80 = call ptr @Fraig_MemFixedEntryFetch(ptr noundef %79) #7
  %81 = getelementptr inbounds nuw i8, ptr %8, i64 104
  store ptr %80, ptr %81, align 8, !tbaa !30
  %82 = getelementptr inbounds nuw i8, ptr %0, i64 72
  %83 = load i32, ptr %82, align 8, !tbaa !31
  %84 = sext i32 %83 to i64
  %85 = getelementptr inbounds i32, ptr %80, i64 %84
  %86 = getelementptr inbounds nuw i8, ptr %8, i64 112
  store ptr %85, ptr %86, align 8, !tbaa !32
  %87 = getelementptr inbounds nuw i8, ptr %8, i64 96
  store i32 0, ptr %87, align 8, !tbaa !38
  call void @Fraig_NodeSimulate(ptr noundef nonnull %8, i32 noundef 0, i32 noundef %83, i32 noundef 1)
  %88 = getelementptr inbounds nuw i8, ptr %8, i64 100
  store i32 0, ptr %88, align 4, !tbaa !42
  %89 = getelementptr inbounds nuw i8, ptr %0, i64 136
  %90 = load i32, ptr %89, align 8, !tbaa !43
  call void @Fraig_NodeSimulate(ptr noundef nonnull %8, i32 noundef 0, i32 noundef %90, i32 noundef 0)
  %91 = load ptr, ptr %81, align 8, !tbaa !30
  %92 = load i32, ptr %82, align 8, !tbaa !31
  %93 = call i32 @Fraig_BitStringCountOnes(ptr noundef %91, i32 noundef %92) #7
  %94 = load i32, ptr %60, align 8
  %95 = shl i32 %93, 12
  %96 = and i32 %94, 4095
  %97 = or disjoint i32 %96, %95
  store i32 %97, ptr %60, align 8
  %98 = and i32 %94, 1
  %.not53 = icmp eq i32 %98, 0
  br i1 %.not53, label %104, label %99

99:                                               ; preds = %Abc_Clock.exit
  %100 = load i32, ptr %82, align 8, !tbaa !31
  %101 = shl i32 %100, 17
  %102 = sub i32 %101, %95
  %103 = or disjoint i32 %102, %96
  store i32 %103, ptr %60, align 8
  br label %104

104:                                              ; preds = %99, %Abc_Clock.exit
  call void @llvm.lifetime.start.p0(i64 16, ptr nonnull %4) #7
  %105 = call i32 @clock_gettime(i32 noundef 1, ptr noundef nonnull %4) #7
  %106 = icmp slt i32 %105, 0
  br i1 %106, label %Abc_Clock.exit55, label %107

107:                                              ; preds = %104
  %108 = load i64, ptr %4, align 8, !tbaa !35
  %109 = mul nsw i64 %108, 1000000
  %110 = getelementptr inbounds nuw i8, ptr %4, i64 8
  %111 = load i64, ptr %110, align 8, !tbaa !37
  %112 = sdiv i64 %111, 1000
  %113 = add nsw i64 %112, %109
  br label %Abc_Clock.exit55

Abc_Clock.exit55:                                 ; preds = %104, %107
  %.0.i54 = phi i64 [ %113, %107 ], [ -1, %104 ]
  call void @llvm.lifetime.end.p0(i64 16, ptr nonnull %4) #7
  %114 = add i64 %.0.i54, %.0.i.neg
  %115 = getelementptr inbounds nuw i8, ptr %0, i64 376
  %116 = load i64, ptr %115, align 8, !tbaa !45
  %117 = add nsw i64 %114, %116
  store i64 %117, ptr %115, align 8, !tbaa !45
  call void @Fraig_NodeAddFaninFanout(ptr noundef nonnull %12, ptr noundef nonnull %8) #7
  call void @Fraig_NodeAddFaninFanout(ptr noundef nonnull %19, ptr noundef nonnull %8) #7
  ret ptr %8
}